target datalayout = "e-m:e-p270:32:32-p271:32:32-p272:64:64-i64:64-i128:128-f80:128-n8:16:32:64-S128"
target triple = "x86_64-pc-linux-gnu"

%"class.llvm::cl::opt" = type { %"class.llvm::cl::Option", %"class.llvm::cl::opt_storage", %"class.llvm::cl::parser", %"class.std::function" }
%"class.llvm::cl::Option" = type { ptr, i16, i16, i16, i16, %"class.llvm::StringRef", %"class.llvm::StringRef", %"class.llvm::StringRef", %"class.llvm::SmallVector", %"class.llvm::SmallPtrSet" }
%"class.llvm::StringRef" = type { ptr, i64 }
%"class.llvm::SmallVector" = type { %"class.llvm::SmallVectorImpl", %"struct.llvm::SmallVectorStorage" }
%"class.llvm::SmallVectorImpl" = type { %"class.llvm::SmallVectorTemplateBase" }
%"class.llvm::SmallVectorTemplateBase" = type { %"class.llvm::SmallVectorTemplateCommon" }
%"class.llvm::SmallVectorTemplateCommon" = type { %"class.llvm::SmallVectorBase" }
%"class.llvm::SmallVectorBase" = type { ptr, i32, i32 }
%"struct.llvm::SmallVectorStorage" = type { [8 x i8] }
%"class.llvm::SmallPtrSet" = type { %"class.llvm::SmallPtrSetImpl.base", [1 x ptr] }
%"class.llvm::SmallPtrSetImpl.base" = type { %"class.llvm::SmallPtrSetImplBase.base" }
%"class.llvm::SmallPtrSetImplBase.base" = type <{ ptr, ptr, i32, i32, i32 }>
%"class.llvm::cl::opt_storage" = type { i8, [7 x i8], %"struct.llvm::cl::OptionValue" }
%"struct.llvm::cl::OptionValue" = type { %"struct.llvm::cl::OptionValueBase.base", [6 x i8] }
%"struct.llvm::cl::OptionValueBase.base" = type { %"class.llvm::cl::OptionValueCopy.base" }
%"class.llvm::cl::OptionValueCopy.base" = type <{ %"struct.llvm::cl::GenericOptionValue", i8, i8 }>
%"struct.llvm::cl::GenericOptionValue" = type { ptr }
%"class.llvm::cl::parser" = type { %"class.llvm::cl::basic_parser" }
%"class.llvm::cl::basic_parser" = type { %"class.llvm::cl::basic_parser_impl" }
%"class.llvm::cl::basic_parser_impl" = type { ptr }
%"class.std::function" = type { %"class.std::_Function_base", ptr }
%"class.std::_Function_base" = type { %"union.std::_Any_data", ptr }
%"union.std::_Any_data" = type { %"union.std::_Nocopy_types" }
%"union.std::_Nocopy_types" = type { { i64, i64 } }
%"class.std::__cxx11::basic_string" = type { %"struct.std::__cxx11::basic_string<char>::_Alloc_hider", i64, %union.anon }
%"struct.std::__cxx11::basic_string<char>::_Alloc_hider" = type { ptr }
%union.anon = type { i64, [8 x i8] }
%"class.llvm::TargetOptions" = type { %"struct.std::pair", i16, i32, i32, i32, i32, %"class.std::shared_ptr", i16, %"class.std::__cxx11::basic_string", i32, i32, i32, i32, i32, i32, %"struct.llvm::DenormalMode", %"struct.llvm::DenormalMode", i32, %"class.llvm::MCTargetOptions", %"class.std::__cxx11::basic_string" }
%"struct.std::pair" = type { i32, i32 }
%"class.std::shared_ptr" = type { %"class.std::__shared_ptr" }
%"class.std::__shared_ptr" = type { ptr, %"class.std::__shared_count" }
%"class.std::__shared_count" = type { ptr }
%"struct.llvm::DenormalMode" = type { i8, i8 }
%"class.llvm::MCTargetOptions" = type <{ i16, i8, i8, i8, i8, [2 x i8], i32, i32, i32, i32, %"class.std::__cxx11::basic_string", %"class.std::__cxx11::basic_string", %"class.std::__cxx11::basic_string", %"class.std::__cxx11::basic_string", ptr, %"class.llvm::ArrayRef", %"class.std::vector.123", i8, [7 x i8] }>
%"class.llvm::ArrayRef" = type { ptr, i64 }
%"class.std::vector.123" = type { %"struct.std::_Vector_base.124" }
%"struct.std::_Vector_base.124" = type { %"struct.std::_Vector_base<std::__cxx11::basic_string<char>, std::allocator<std::__cxx11::basic_string<char>>>::_Vector_impl" }
%"struct.std::_Vector_base<std::__cxx11::basic_string<char>, std::allocator<std::__cxx11::basic_string<char>>>::_Vector_impl" = type { %"struct.std::_Vector_base<std::__cxx11::basic_string<char>, std::allocator<std::__cxx11::basic_string<char>>>::_Vector_impl_data" }
%"struct.std::_Vector_base<std::__cxx11::basic_string<char>, std::allocator<std::__cxx11::basic_string<char>>>::_Vector_impl_data" = type { ptr, ptr, ptr }
%"class.llvm::TargetMachine" = type { ptr, ptr, %"class.llvm::DataLayout", %"class.llvm::Triple", %"class.std::__cxx11::basic_string", %"class.std::__cxx11::basic_string", i32, i32, i64, i32, %"class.std::unique_ptr", %"class.std::unique_ptr.89", %"class.std::unique_ptr.97", %"class.std::unique_ptr.105", i8, [7 x i8], %"class.std::optional.113", %"class.llvm::TargetOptions" }
%"class.llvm::DataLayout" = type { i8, i32, i32, i32, %"struct.llvm::MaybeAlign", %"struct.llvm::MaybeAlign", i32, i32, %"class.llvm::SmallVector.59", %"class.llvm::SmallVector.65", %"class.llvm::SmallVector.70", %"class.llvm::SmallVector.72", %"class.llvm::SmallVector.74", %"class.std::__cxx11::basic_string", %"struct.llvm::Align", %"struct.llvm::Align", ptr, %"class.llvm::SmallVector.82" }
%"struct.llvm::MaybeAlign" = type { %"class.std::optional.53" }
%"class.std::optional.53" = type { %"struct.std::_Optional_base.54" }
%"struct.std::_Optional_base.54" = type { %"struct.std::_Optional_payload.56" }
%"struct.std::_Optional_payload.56" = type { %"struct.std::_Optional_payload_base.57" }
%"struct.std::_Optional_payload_base.57" = type { %"union.std::_Optional_payload_base<llvm::Align>::_Storage", i8 }
%"union.std::_Optional_payload_base<llvm::Align>::_Storage" = type { %"struct.std::_Optional_payload_base<llvm::Align>::_Empty_byte" }
%"struct.std::_Optional_payload_base<llvm::Align>::_Empty_byte" = type { i8 }
%"class.llvm::SmallVector.59" = type { %"class.llvm::SmallVectorImpl.60", %"struct.llvm::SmallVectorStorage.64" }
%"class.llvm::SmallVectorImpl.60" = type { %"class.llvm::SmallVectorTemplateBase.61" }
%"class.llvm::SmallVectorTemplateBase.61" = type { %"class.llvm::SmallVectorTemplateCommon.62" }
%"class.llvm::SmallVectorTemplateCommon.62" = type { %"class.llvm::SmallVectorBase.63" }
%"class.llvm::SmallVectorBase.63" = type { ptr, i64, i64 }
%"struct.llvm::SmallVectorStorage.64" = type { [8 x i8] }
%"class.llvm::SmallVector.65" = type { %"class.llvm::SmallVectorImpl.66", %"struct.llvm::SmallVectorStorage.69" }
%"class.llvm::SmallVectorImpl.66" = type { %"class.llvm::SmallVectorTemplateBase.67" }
%"class.llvm::SmallVectorTemplateBase.67" = type { %"class.llvm::SmallVectorTemplateCommon.68" }
%"class.llvm::SmallVectorTemplateCommon.68" = type { %"class.llvm::SmallVectorBase" }
%"struct.llvm::SmallVectorStorage.69" = type { [48 x i8] }
%"class.llvm::SmallVector.70" = type { %"class.llvm::SmallVectorImpl.66", %"struct.llvm::SmallVectorStorage.71" }
%"struct.llvm::SmallVectorStorage.71" = type { [32 x i8] }
%"class.llvm::SmallVector.72" = type { %"class.llvm::SmallVectorImpl.66", %"struct.llvm::SmallVectorStorage.73" }
%"struct.llvm::SmallVectorStorage.73" = type { [80 x i8] }
%"class.llvm::SmallVector.74" = type { %"class.llvm::SmallVectorImpl.75", %"struct.llvm::SmallVectorStorage.78" }
%"class.llvm::SmallVectorImpl.75" = type { %"class.llvm::SmallVectorTemplateBase.76" }
%"class.llvm::SmallVectorTemplateBase.76" = type { %"class.llvm::SmallVectorTemplateCommon.77" }
%"class.llvm::SmallVectorTemplateCommon.77" = type { %"class.llvm::SmallVectorBase" }
%"struct.llvm::SmallVectorStorage.78" = type { [128 x i8] }
%"struct.llvm::Align" = type { i8 }
%"class.llvm::SmallVector.82" = type { %"class.llvm::SmallVectorImpl.83", %"struct.llvm::SmallVectorStorage.86" }
%"class.llvm::SmallVectorImpl.83" = type { %"class.llvm::SmallVectorTemplateBase.84" }
%"class.llvm::SmallVectorTemplateBase.84" = type { %"class.llvm::SmallVectorTemplateCommon.85" }
%"class.llvm::SmallVectorTemplateCommon.85" = type { %"class.llvm::SmallVectorBase" }
%"struct.llvm::SmallVectorStorage.86" = type { [32 x i8] }
%"class.llvm::Triple" = type { %"class.std::__cxx11::basic_string", i32, i32, i32, i32, i32, i32 }
%"class.std::unique_ptr" = type { %"struct.std::__uniq_ptr_data" }
%"struct.std::__uniq_ptr_data" = type { %"class.std::__uniq_ptr_impl" }
%"class.std::__uniq_ptr_impl" = type { %"class.std::tuple" }
%"class.std::tuple" = type { %"struct.std::_Tuple_impl" }
%"struct.std::_Tuple_impl" = type { %"struct.std::_Head_base.88" }
%"struct.std::_Head_base.88" = type { ptr }
%"class.std::unique_ptr.89" = type { %"struct.std::__uniq_ptr_data.90" }
%"struct.std::__uniq_ptr_data.90" = type { %"class.std::__uniq_ptr_impl.91" }
%"class.std::__uniq_ptr_impl.91" = type { %"class.std::tuple.92" }
%"class.std::tuple.92" = type { %"struct.std::_Tuple_impl.93" }
%"struct.std::_Tuple_impl.93" = type { %"struct.std::_Head_base.96" }
%"struct.std::_Head_base.96" = type { ptr }
%"class.std::unique_ptr.97" = type { %"struct.std::__uniq_ptr_data.98" }
%"struct.std::__uniq_ptr_data.98" = type { %"class.std::__uniq_ptr_impl.99" }
%"class.std::__uniq_ptr_impl.99" = type { %"class.std::tuple.100" }
%"class.std::tuple.100" = type { %"struct.std::_Tuple_impl.101" }
%"struct.std::_Tuple_impl.101" = type { %"struct.std::_Head_base.104" }
%"struct.std::_Head_base.104" = type { ptr }
%"class.std::unique_ptr.105" = type { %"struct.std::__uniq_ptr_data.106" }
%"struct.std::__uniq_ptr_data.106" = type { %"class.std::__uniq_ptr_impl.107" }
%"class.std::__uniq_ptr_impl.107" = type { %"class.std::tuple.108" }
%"class.std::tuple.108" = type { %"struct.std::_Tuple_impl.109" }
%"struct.std::_Tuple_impl.109" = type { %"struct.std::_Head_base.112" }
%"struct.std::_Head_base.112" = type { ptr }
%"class.std::optional.113" = type { %"struct.std::_Optional_base.114" }
%"struct.std::_Optional_base.114" = type { %"struct.std::_Optional_payload.116" }
%"struct.std::_Optional_payload.116" = type { %"struct.std::_Optional_payload.base.120", [7 x i8] }
%"struct.std::_Optional_payload.base.120" = type { %"struct.std::_Optional_payload_base.base.119" }
%"struct.std::_Optional_payload_base.base.119" = type <{ %"union.std::_Optional_payload_base<llvm::PGOOptions>::_Storage", i8 }>
%"union.std::_Optional_payload_base<llvm::PGOOptions>::_Storage" = type { %"struct.llvm::PGOOptions" }
%"struct.llvm::PGOOptions" = type { %"class.std::__cxx11::basic_string", %"class.std::__cxx11::basic_string", %"class.std::__cxx11::basic_string", %"class.std::__cxx11::basic_string", i32, i32, i32, i8, i8, i8, %"class.llvm::IntrusiveRefCntPtr" }
%"class.llvm::IntrusiveRefCntPtr" = type { ptr }
%"class.llvm::IdentifyingPassPtr" = type <{ %union.anon.605, i8, [7 x i8] }>
%union.anon.605 = type { ptr }
%"class.llvm::TargetPassConfig" = type <{ %"class.llvm::ImmutablePass.base", [4 x i8], ptr, ptr, ptr, ptr, ptr, i32, i32, i32, i32, i32, i32, i32, i32, i8, i8, i8, i8, [4 x i8], ptr, ptr, i8, i8, i8, i8, i8, i8, [2 x i8] }>
%"class.llvm::ImmutablePass.base" = type { %"class.llvm::ModulePass.base" }
%"class.llvm::ModulePass.base" = type { %"class.llvm::Pass.base" }
%"class.llvm::Pass.base" = type <{ ptr, ptr, ptr, i32 }>

@_ZL14EnableSinkFold = internal global %"class.llvm::cl::opt" zeroinitializer, align 8
@_ZN4llvm17PostRASchedulerIDE = external constant ptr, align 8
@_ZN4llvm22PostMachineSchedulerIDE = external constant ptr, align 8

; Function Attrs: mustprogress nounwind uwtable
define linkonce_odr hidden noundef zeroext i1 @_ZNK4llvm2cl11opt_storageIbLb0ELb0EE8getValueEv(ptr noundef nonnull align 8 dereferenceable(24) %0) #1 comdat align 2 {
  %2 = alloca ptr, align 8
  store ptr %0, ptr %2, align 8
  %3 = load ptr, ptr %2, align 8
  %4 = getelementptr inbounds nuw %"class.llvm::cl::opt_storage", ptr %3, i32 0, i32 0
  %5 = load i8, ptr %4, align 8
  %6 = trunc i8 %5 to i1
  ret i1 %6
}

; Function Attrs: mustprogress nounwind uwtable
define linkonce_odr hidden void @_ZN4llvm16TargetPassConfig20setEnableSinkAndFoldEb(ptr noundef nonnull align 8 dereferenceable(134) %0, i1 noundef zeroext %1) #1 comdat align 2 {
  %3 = alloca ptr, align 8
  %4 = alloca i8, align 1
  store ptr %0, ptr %3, align 8
  %5 = zext i1 %1 to i8
  store i8 %5, ptr %4, align 1
  %6 = load ptr, ptr %3, align 8
  %7 = getelementptr inbounds nuw %"class.llvm::TargetPassConfig", ptr %6, i32 0, i32 25
  %8 = load i8, ptr %4, align 1
  %9 = trunc i8 %8 to i1
  call void @_ZN4llvm16TargetPassConfig6setOptERbb(ptr noundef nonnull align 8 dereferenceable(134) %6, ptr noundef nonnull align 1 dereferenceable(1) %7, i1 noundef zeroext %9)
  ret void
}

; Function Attrs: mustprogress nounwind uwtable
define linkonce_odr hidden noundef zeroext i1 @_ZNK4llvm2cl11opt_storageIbLb0ELb0EEcvbEv(ptr noundef nonnull align 8 dereferenceable(24) %0) #1 comdat align 2 {
  %2 = alloca ptr, align 8
  store ptr %0, ptr %2, align 8
  %3 = load ptr, ptr %2, align 8
  %4 = call noundef zeroext i1 @_ZNK4llvm2cl11opt_storageIbLb0ELb0EE8getValueEv(ptr noundef nonnull align 8 dereferenceable(24) %3)
  ret i1 %4
}

; Function Attrs: mustprogress nounwind uwtable
define linkonce_odr hidden void @_ZN4llvm18IdentifyingPassPtrC2EPKv(ptr noundef nonnull align 8 dereferenceable(9) %0, ptr noundef %1) unnamed_addr #1 comdat align 2 {
  %3 = alloca ptr, align 8
  %4 = alloca ptr, align 8
  store ptr %0, ptr %3, align 8
  store ptr %1, ptr %4, align 8
  %5 = load ptr, ptr %3, align 8
  %6 = getelementptr inbounds nuw %"class.llvm::IdentifyingPassPtr", ptr %5, i32 0, i32 0
  %7 = load ptr, ptr %4, align 8
  store ptr %7, ptr %6, align 8
  %8 = getelementptr inbounds nuw %"class.llvm::IdentifyingPassPtr", ptr %5, i32 0, i32 1
  store i8 0, ptr %8, align 8
  ret void
}

; Function Attrs: mustprogress nounwind uwtable
define linkonce_odr hidden noundef i32 @_ZNK4llvm13TargetMachine11getOptLevelEv(ptr noundef nonnull align 8 dereferenceable(1232) %0) #1 comdat align 2 {
  %2 = alloca ptr, align 8
  store ptr %0, ptr %2, align 8
  %3 = load ptr, ptr %2, align 8
  %4 = getelementptr inbounds nuw %"class.llvm::TargetMachine", ptr %3, i32 0, i32 9
  %5 = load i32, ptr %4, align 8
  ret i32 %5
}

; Function Attrs: mustprogress nounwind uwtable
define internal void @_ZN12_GLOBAL__N_117AArch64PassConfigC2ERN4llvm20AArch64TargetMachineERNS1_6legacy15PassManagerBaseE(ptr noundef nonnull align 8 dereferenceable(134) %0, ptr noundef nonnull align 8 dereferenceable(1265) %1, ptr noundef nonnull align 1 %2) unnamed_addr #1 align 2 {
  %4 = alloca ptr, align 8
  %5 = alloca ptr, align 8
  %6 = alloca ptr, align 8
  %7 = alloca %"class.llvm::IdentifyingPassPtr", align 8
  store ptr %0, ptr %4, align 8
  store ptr %1, ptr %5, align 8
  store ptr %2, ptr %6, align 8
  %8 = load ptr, ptr %4, align 8
  %9 = load ptr, ptr %5, align 8
  %10 = load ptr, ptr %6, align 8
  call void @_ZN4llvm16TargetPassConfigC2ERNS_17LLVMTargetMachineERNS_6legacy15PassManagerBaseE(ptr noundef nonnull align 8 dereferenceable(134) %8, ptr noundef nonnull align 8 dereferenceable(1232) %9, ptr noundef nonnull align 1 %10)
  store ptr getelementptr inbounds inrange(-16, 456) ({ [59 x ptr] }, ptr @_ZTVN12_GLOBAL__N_117AArch64PassConfigE, i32 0, i32 0, i32 2), ptr %8, align 8
  %11 = load ptr, ptr %5, align 8
  %12 = call noundef i32 @_ZNK4llvm13TargetMachine11getOptLevelEv(ptr noundef nonnull align 8 dereferenceable(1232) %11)
  %13 = icmp ne i32 %12, 0
  br i1 %13, label %14, label %21

14:                                               ; preds = %3
  %15 = load ptr, ptr @_ZN4llvm17PostRASchedulerIDE, align 8
  %16 = load ptr, ptr @_ZN4llvm22PostMachineSchedulerIDE, align 8
  call void @_ZN4llvm18IdentifyingPassPtrC2EPKv(ptr noundef nonnull align 8 dereferenceable(9) %7, ptr noundef %16)
  %17 = getelementptr inbounds nuw { ptr, i8 }, ptr %7, i32 0, i32 0
  %18 = load ptr, ptr %17, align 8
  %19 = getelementptr inbounds nuw { ptr, i8 }, ptr %7, i32 0, i32 1
  %20 = load i8, ptr %19, align 8
  call void @_ZN4llvm16TargetPassConfig14substitutePassEPKvNS_18IdentifyingPassPtrE(ptr noundef nonnull align 8 dereferenceable(134) %8, ptr noundef %15, ptr %18, i8 %20)
  br label %21

21:                                               ; preds = %14, %3
  %22 = call noundef zeroext i1 @_ZNK4llvm2cl11opt_storageIbLb0ELb0EEcvbEv(ptr noundef nonnull align 8 dereferenceable(24) getelementptr inbounds (i8, ptr @_ZL14EnableSinkFold, i64 128))
  call void @_ZN4llvm16TargetPassConfig20setEnableSinkAndFoldEb(ptr noundef nonnull align 8 dereferenceable(134) %8, i1 noundef zeroext %22)
  ret void
}

; Function Attrs: mustprogress nounwind uwtable
define dso_local noundef ptr @_ZN4llvm20AArch64TargetMachine16createPassConfigERNS_6legacy15PassManagerBaseE(ptr noundef nonnull align 8 dereferenceable(1265) %0, ptr noundef nonnull align 1 %1) unnamed_addr #1 align 2 {
  %3 = alloca ptr, align 8
  %4 = alloca ptr, align 8
  store ptr %0, ptr %3, align 8
  store ptr %1, ptr %4, align 8
  %5 = load ptr, ptr %3, align 8
  %6 = call noalias noundef nonnull ptr @_Znwm(i64 noundef 136) #17
  %7 = load ptr, ptr %4, align 8
  call void @_ZN12_GLOBAL__N_117AArch64PassConfigC2ERN4llvm20AArch64TargetMachineERNS1_6legacy15PassManagerBaseE(ptr noundef nonnull align 8 dereferenceable(134) %6, ptr noundef nonnull align 8 dereferenceable(1265) %5, ptr noundef nonnull align 1 %7)
  ret ptr %6
}