; Function Attrs: mustprogress nounwind uwtable
define dso_local noundef nonnull ptr @_ZN4llvm20AArch64TargetMachine16createPassConfigERNS_6legacy15PassManagerBaseE(ptr noundef nonnull align 8 dereferenceable(1265) %0, ptr noundef nonnull align 1 %1) unnamed_addr #0 align 2 {
  %3 = tail call noalias noundef nonnull dereferenceable(136) ptr @_Znwm(i64 noundef 136) #23
  tail call void @_ZN4llvm16TargetPassConfigC2ERNS_17LLVMTargetMachineERNS_6legacy15PassManagerBaseE(ptr noundef nonnull align 8 dereferenceable(134) %3, ptr noundef nonnull align 8 dereferenceable(1232) %0, ptr noundef nonnull align 1 %1) #21
  store ptr getelementptr inbounds inrange(-16, 456) (i8, ptr @_ZTVN12_GLOBAL__N_117AArch64PassConfigE, i64 16), ptr %3, align 8
  %4 = getelementptr inbounds nuw i8, ptr %0, i64 664
  %5 = load i32, ptr %4, align 8
  %.not.i = icmp eq i32 %5, 0
  br i1 %.not.i, label %_ZN12_GLOBAL__N_117AArch64PassConfigC2ERN4llvm20AArch64TargetMachineERNS1_6legacy15PassManagerBaseE.exit, label %6

6:                                                ; preds = %2
  %7 = load ptr, ptr @_ZN4llvm17PostRASchedulerIDE, align 8
  %8 = load ptr, ptr @_ZN4llvm22PostMachineSchedulerIDE, align 8
  tail call void @_ZN4llvm16TargetPassConfig14substitutePassEPKvNS_18IdentifyingPassPtrE(ptr noundef nonnull align 8 dereferenceable(134) %3, ptr noundef %7, ptr %8, i8 0) #21
  br label %_ZN12_GLOBAL__N_117AArch64PassConfigC2ERN4llvm20AArch64TargetMachineERNS1_6legacy15PassManagerBaseE.exit

_ZN12_GLOBAL__N_117AArch64PassConfigC2ERN4llvm20AArch64TargetMachineERNS1_6legacy15PassManagerBaseE.exit: ; preds = %2, %6
  %9 = load i8, ptr getelementptr inbounds (i8, ptr @_ZL14EnableSinkFold, i64 128), align 8
  %10 = trunc i8 %9 to i1
  %11 = getelementptr inbounds nuw i8, ptr %3, i64 131
  tail call void @_ZN4llvm16TargetPassConfig6setOptERbb(ptr noundef nonnull align 8 dereferenceable(134) %3, ptr noundef nonnull align 1 dereferenceable(1) %11, i1 noundef zeroext %10) #21
  ret ptr %3
}